; Function Attrs: mustprogress nofree norecurse nosync nounwind willreturn memory(argmem: readwrite) uwtable
define void @_ZN8QuantLib20NonLinearLeastSquareC2ERNS_10ConstraintEdmN5boost10shared_ptrINS_18OptimizationMethodEEE(ptr nocapture noundef nonnull writeonly align 8 dereferenceable(104) %this, ptr noundef nonnull align 8 dereferenceable(16) %c, double noundef %accuracy, i64 noundef %maxiter, ptr nocapture noundef %om) unnamed_addr #6 align 2 personality ptr @__gxx_personality_v0 {
invoke.cont:
  %exitFlag_ = getelementptr inbounds nuw i8, ptr %this, i64 40
  tail call void @llvm.memset.p0.i64(ptr noundef nonnull align 8 dereferenceable(32) %this, i8 0, i64 32, i1 false)
  store i32 -1, ptr %exitFlag_, align 8, !tbaa !52
  %accuracy_ = getelementptr inbounds nuw i8, ptr %this, i64 48
  store double %accuracy, ptr %accuracy_, align 8, !tbaa !57
  %maxIterations_ = getelementptr inbounds nuw i8, ptr %this, i64 64
  store i64 %maxiter, ptr %maxIterations_, align 8, !tbaa !58
  %om_ = getelementptr inbounds nuw i8, ptr %this, i64 80
  %0 = load ptr, ptr %om, align 8, !tbaa !60
  store ptr %0, ptr %om_, align 8, !tbaa !60
  %pn.i = getelementptr inbounds nuw i8, ptr %this, i64 88
  %pn3.i = getelementptr inbounds nuw i8, ptr %om, i64 8
  %1 = load ptr, ptr %pn3.i, align 8, !tbaa !59
  store ptr %1, ptr %pn.i, align 8, !tbaa !59
  tail call void @llvm.memset.p0.i64(ptr noundef nonnull align 8 dereferenceable(16) %om, i8 0, i64 16, i1 false)
  %c_ = getelementptr inbounds nuw i8, ptr %this, i64 96
  store ptr %c, ptr %c_, align 8, !tbaa !11
  ret void
}